target datalayout = "e-m:e-p270:32:32-p271:32:32-p272:64:64-i64:64-i128:128-f80:128-n8:16:32:64-S128"
target triple = "x86_64-pc-linux-gnu"

; Function Attrs: nounwind uwtable
define ptr @mpool_calloc(ptr noundef %0, i64 noundef %1, i64 noundef %2) #0 {
  %4 = alloca ptr, align 8
  %5 = alloca ptr, align 8
  %6 = alloca i64, align 8
  %7 = alloca i64, align 8
  %8 = alloca i64, align 8
  %9 = alloca ptr, align 8
  store ptr %0, ptr %5, align 8
  store i64 %1, ptr %6, align 8
  store i64 %2, ptr %7, align 8
  %10 = load i64, ptr %6, align 8
  %11 = load i64, ptr %7, align 8
  %12 = mul i64 %10, %11
  store i64 %12, ptr %8, align 8
  %13 = load i64, ptr %8, align 8
  %14 = icmp ne i64 %13, 0
  br i1 %14, label %16, label %15

15:                                               ; preds = %3
  store ptr null, ptr %4, align 8
  br label %26

16:                                               ; preds = %3
  %17 = load ptr, ptr %5, align 8
  %18 = load i64, ptr %8, align 8
  %19 = call ptr @mpool_malloc(ptr noundef %17, i64 noundef %18)
  store ptr %19, ptr %9, align 8
  %20 = icmp ne ptr %19, null
  br i1 %20, label %21, label %24

21:                                               ; preds = %16
  %22 = load ptr, ptr %9, align 8
  %23 = load i64, ptr %8, align 8
  call void @llvm.memset.p0.i64(ptr align 1 %22, i8 0, i64 %23, i1 false)
  br label %24

24:                                               ; preds = %21, %16
  %25 = load ptr, ptr %9, align 8
  store ptr %25, ptr %4, align 8
  br label %26

26:                                               ; preds = %24, %15
  %27 = load ptr, ptr %4, align 8
  ret ptr %27
}