; Function Attrs: nounwind uwtable
define ptr @mpool_calloc(ptr noundef %0, i64 noundef %1, i64 noundef %2) local_unnamed_addr #0 {
  %4 = mul i64 %2, %1
  %.not = icmp eq i64 %4, 0
  br i1 %.not, label %8, label %5

5:                                                ; preds = %3
  %6 = tail call ptr @mpool_malloc(ptr noundef %0, i64 noundef %4)
  %.not10 = icmp eq ptr %6, null
  br i1 %.not10, label %8, label %7

7:                                                ; preds = %5
  tail call void @llvm.memset.p0.i64(ptr nonnull align 1 %6, i8 0, i64 %4, i1 false)
  br label %8

8:                                                ; preds = %5, %7, %3
  %.0 = phi ptr [ null, %3 ], [ %6, %7 ], [ null, %5 ]
  ret ptr %.0
}